; Function Attrs: nounwind uwtable
define range(i32 0, 2) i32 @ossl_dh_key_fromdata(ptr noundef %0, ptr noundef %1, i32 noundef %2) local_unnamed_addr #0 {
  %4 = alloca ptr, align 8
  %5 = alloca ptr, align 8
  call void @llvm.lifetime.start.p0(i64 8, ptr nonnull %4) #3
  store ptr null, ptr %4, align 8, !tbaa !7
  call void @llvm.lifetime.start.p0(i64 8, ptr nonnull %5) #3
  store ptr null, ptr %5, align 8, !tbaa !7
  %6 = icmp eq ptr %0, null
  br i1 %6, label %24, label %7

7:                                                ; preds = %3
  %8 = tail call ptr @OSSL_PARAM_locate_const(ptr noundef %1, ptr noundef nonnull @.str.1) #3
  %9 = tail call ptr @OSSL_PARAM_locate_const(ptr noundef %1, ptr noundef nonnull @.str.2) #3
  %10 = icmp ne i32 %2, 0
  %11 = icmp ne ptr %8, null
  %or.cond = select i1 %10, i1 %11, i1 false
  br i1 %or.cond, label %12, label %14

12:                                               ; preds = %7
  %13 = call i32 @OSSL_PARAM_get_BN(ptr noundef nonnull %8, ptr noundef nonnull %4) #3
  %.not = icmp eq i32 %13, 0
  br i1 %.not, label %21, label %14

14:                                               ; preds = %12, %7
  %.not13 = icmp eq ptr %9, null
  br i1 %.not13, label %17, label %15

15:                                               ; preds = %14
  %16 = call i32 @OSSL_PARAM_get_BN(ptr noundef nonnull %9, ptr noundef nonnull %5) #3
  %.not14 = icmp eq i32 %16, 0
  br i1 %.not14, label %21, label %._crit_edge

._crit_edge:                                      ; preds = %15
  %.pre = load ptr, ptr %5, align 8, !tbaa !7
  br label %17

17:                                               ; preds = %._crit_edge, %14
  %18 = phi ptr [ %.pre, %._crit_edge ], [ null, %14 ]
  %19 = load ptr, ptr %4, align 8, !tbaa !7
  %20 = call i32 @DH_set0_key(ptr noundef nonnull %0, ptr noundef %18, ptr noundef %19) #3
  %.not15 = icmp eq i32 %20, 0
  br i1 %.not15, label %21, label %24

21:                                               ; preds = %17, %15, %12
  %22 = load ptr, ptr %4, align 8, !tbaa !7
  call void @BN_clear_free(ptr noundef %22) #3
  %23 = load ptr, ptr %5, align 8, !tbaa !7
  call void @BN_free(ptr noundef %23) #3
  br label %24

24:                                               ; preds = %17, %3, %21
  %.0 = phi i32 [ 0, %21 ], [ 0, %3 ], [ 1, %17 ]
  call void @llvm.lifetime.end.p0(i64 8, ptr nonnull %5) #3
  call void @llvm.lifetime.end.p0(i64 8, ptr nonnull %4) #3
  ret i32 %.0
}